(dp1
S'_Z14binning_kerneljP20ReconstructionSamplePjS1_S1_jj'
p2
I10
sS'_Z18scan_inter1_kernelPjj'
p3
I16
sS'_Z10uniformAddjPjS_'
p4
I8
sS'_Z14scan_L1_kerneljPjS_'
p5
I18
sS'_Z12gridding_GPU17sampleArrayStructPjP6float2Pff'
p6
I95
sS'__nv_static_52__39_tmpxft_000068f3_00000000_7_sort_cpp1_ii_560325ea__Z9splitSortiiPjS_S_'
p7
I39
sS'_Z14reorder_kerneliPjP20ReconstructionSample17sampleArrayStruct'
p8
I14
sS'_Z14splitRearrangeiiPjS_S_S_S_'
p9
I24
sS'_Z18scan_inter2_kernelPjj'
p10
I17
s.