32768      341033fe00000000      R1 MOV      
32768      341033fe00000018      R1 IADD      R1 
32768      341033fe00000020      R0 S2R      
32768      341033fe00000028 (p0)      ISETP      R1 R0 
32768      341033fe00000030      BRA (p0)      
32768      341033fe00000040      R0 IADD      R1 R255 
32768      341033fe00000050      R4 MOV      R0 
32768      341033fe00000058      R5 MOV      R255 
32768      341033fe00000060      R4 MOV      R4 
32768      341033fe00000068      R5 MOV      R5 
32768      341033fe00000070      R6 MOV      
32768      341033fe00000078      R7 MOV      R255 
32768      341033fe00000080      R4 LOP      R4 R6 
32768      341033fe00000090      R5 LOP      R5 R7 
32768      341033fe00000098      R0 MOV      
32768      341033fe000000a0      R2 LDC      R0 
32768      341033fe000000a8      R0 MOV      
32768      341033fe000000b0      R16 R17 LDC      R0 
32768      341033fe000000b8      R0 MOV      
32768      341033fe000000c0      R18 R19 LDC      R0 
32768      341033fe000000d0      R0 MOV      
32768      341033fe000000d8      R20 R21 LDC      R0 
32768      341033fe000000e0      R0 MOV      
32768      341033fe000000e8      R22 LDC      R0 
32768      341033fe000000f0      R0 MOV      
32768      341033fe000000f8      R23 LDC      R0 
32768      341033fe00000100      R0 MOV      
32768      341033fe00000110      R24 LDC      R0 
32768      341033fe00000118      R0 MOV      
32768      341033fe00000120      R25 LDC      R0 
32768      341033fe00000128      R0 MOV      
32768      341033fe00000130      R0 LDC      R0 
32768      341033fe00000138      R3 MOV      
32768      341033fe00000140      R26 LDC      R3 
32768      341033fe00000150      R3 MOV      
32768      341033fe00000158      R27 LDC      R3 
32768      341033fe00000160      R3 MOV      
32768      341033fe00000168      R28 LDC      R3 
32768      341033fe00000170      R3 MOV      
32768      341033fe00000178      R3 LDC      R3 
32768      341033fe00000180      R6 MOV      
32768      341033fe00000190      R6 LDC      R6 
32768      341033fe00000198 (CC) R4 IADD      R4 R255 
32768      341033fe000001a0      R5 IADD (CC) R5 R255 
32768      341033fe000001a8      R4 MOV      R4 
32768      341033fe000001b0      R5 MOV      R5 
32768      341033fe000001b8      ST      R4 R5 R6 
32768      341033fe000001c0      R4 MOV      
32768      341033fe000001d0      R29 MOV      R4 
32768      341033fe000001d8      R4 S2R      
32768      341033fe000001e0      R4 MOV      R4 
32768      341033fe000001e8      R30 MOV      R4 
32768      341033fe000001f0      R4 S2R      
32768      341033fe000001f8      R4 MOV      R4 
32768      341033fe00000200      R31 MOV      R4 
32768      341033fe00000210      R4 S2R      
32768      341033fe00000218      R4 MOV      R4 
32768      341033fe00000220      R36 MOV      R4 
32768      341033fe00000228      R4 S2R      
32768      341033fe00000230      R4 MOV      R4 
32768      341033fe00000238      R37 MOV      R4 
32768      341033fe00000240      R4 R5 F2F      R3 
32768      341033fe00000250      R3 F2F      R4 R5 
32768      341033fe00000258      R4 R5 F2F      R0 
32768      341033fe00000260      R0 F2F      R4 R5 
32768      341033fe00000268      BRA      
32768      341033fe00000270      R4 MOV      R3 
32768      341033fe00000278      R5 MOV      R0 
32768      341033fe00000280      R4 JCAL      R1 R4 R5 
32768      341033fe00000290      R0 MOV      R4 
32768      341033fe00000298      R0 MOV      R0 
32768      341033fe000002a0      R38 MOV      R0 
32768      341033fe000002a8      R4 MOV      R26 
32768      341033fe000002b0      R4 JCAL      R1 R4 
32768      341033fe000002b8      R0 MOV      R4 
32768      341033fe000002c0      R26 MOV      R0 
32768      341033fe000002d0      R4 MOV      R27 
32768      341033fe000002d8      R4 JCAL      R1 R4 
32768      341033fe000002e0      R0 MOV      R4 
32768      341033fe000002e8      R27 MOV      R0 
32768      341033fe000002f0      R4 MOV      R28 
32768      341033fe000002f8      R4 JCAL      R1 R4 
32768      341033fe00000300      R0 MOV      R4 
32768      341033fe00000310      R0 MOV      R0 
32768      341033fe00000318      R4 IMUL      R2 
32768      341033fe00000320      R3 MOV      
32768      341033fe00000328      R3 MOV      R3 
32768      341033fe00000330      R4 IADD      R3 R4 
32768      341033fe00000338      R5 IMUL      R2 
32768      341033fe00000340      R3 IADD      R3 R5 
32768      341033fe00000350      R4 IMUL      R4 R31 
32768      341033fe00000358      R9 IADD      R4 R25 
32768      341033fe00000360      R3 IMUL      R3 R30 
32768      341033fe00000368      R10 IADD      R3 R24 
32768      341033fe00000370      R3 IADD      R9 
32768      341033fe00000378      R11 IADD      R3 
32768      341033fe00000380      R3 IADD      R10 
32768      341033fe00000390      R8 IADD      R3 
32768      341033fe00000398      R3 IADD      R9 R37 
32768      341033fe000003a0      R4 IADD      R10 R36 
32768      341033fe000003a8      R5 MOV      R3 
32768      341033fe000003b0      R4 MOV      R4 
32768      341033fe000003b8      R3 IMUL      R22 R5 
32768      341033fe000003c0      R3 IADD      R3 R4 
32768      341033fe000003d0 (p1)      ISETP      R5 R255 
32768      341033fe000003d8 (p0)      PSETP      
32768      341033fe000003e0 (p1)      PSETP (p1)      
32768      341033fe000003e8      SSY      
32768      341033fe000003f0      BRA (p1)      
32640      341033fe000003f8      BRA      
32640      341033fe00000400      R6 IADD      R23 
32640      341033fe00000410 (p0)      ISETP      R5 R6 
32768      341033fe00000418      NOP      
32768      341033fe00000420 (p1)      PSETP      
32768      341033fe00000428 (p0)      PSETP (p0)      
32768      341033fe00000430      SSY      
32768      341033fe00000438      BRA (p0)      
32512      341033fe00000440      BRA      
32512      341033fe00000450 (p0)      ISETP      R4 R255 
32512      341033fe00000458 (p1)      PSETP      
32512      341033fe00000460 (p0)      PSETP (p0)      
32512      341033fe00000468      BRA (p0)      
32512      341033fe00000470      BRA      
32512      341033fe00000478      R5 IADD      R22 
32512      341033fe00000480 (p1)      ISETP      R4 R5 
33276      341033fe00000490      NOP      
32768      341033fe00000498 (p0)      PSETP (p1)      
32768      341033fe000004a0      SSY      
32768      341033fe000004a8      BRA (p0)      
32512      341033fe000004b0      BRA      
32512      341033fe000004b8      R4 MOV      R3 
32512      341033fe000004c0      R5 ISET      R3 R255 
32512      341033fe000004d0      R5 SHF      R4 R5 
32512      341033fe000004d8      R4 SHL      R4 
32512      341033fe000004e0      R4 MOV      R4 
32512      341033fe000004e8      R5 MOV      R5 
32512      341033fe000004f0 (CC) R4 IADD      R18 R4 
32512      341033fe000004f8      R5 IADD (CC) R19 R5 
32512      341033fe00000500      R4 MOV      R4 
32512      341033fe00000510      R5 MOV      R5 
32512      341033fe00000518      R12 LD      R4 R5 
32512      341033fe00000520      R4 MOV      
32512      341033fe00000528      R4 MOV      R4 
32512      341033fe00000530      R5 MOV      R255 
32512      341033fe00000538      R4 MOV      R4 
32512      341033fe00000540      R5 MOV      R5 
32512      341033fe00000550      R6 MOV      
32512      341033fe00000558      R7 MOV      R255 
32512      341033fe00000560      R4 LOP      R4 R6 
32512      341033fe00000568      R5 LOP      R5 R7 
32512      341033fe00000570      R6 MOV      R37 
32512      341033fe00000578      R7 ISET      R37 R255 
32512      341033fe00000580      R7 SHF      R6 R7 
32512      341033fe00000590      R6 SHL      R6 
32512      341033fe00000598      R6 MOV      R6 
32512      341033fe000005a0      R7 MOV      R7 
32512      341033fe000005a8 (CC) R4 IADD      R4 R6 
32512      341033fe000005b0      R5 IADD (CC) R5 R7 
32512      341033fe000005b8      R6 MOV      R36 
32512      341033fe000005c0      R7 ISET      R36 R255 
32512      341033fe000005d0      R7 SHF      R6 R7 
32512      341033fe000005d8      R6 SHL      R6 
32512      341033fe000005e0      R6 MOV      R6 
32512      341033fe000005e8      R7 MOV      R7 
32512      341033fe000005f0 (CC) R4 IADD      R4 R6 
32512      341033fe000005f8      R5 IADD (CC) R5 R7 
32512      341033fe00000600      R4 MOV      R4 
32512      341033fe00000610      R5 MOV      R5 
32512      341033fe00000618      ST      R4 R5 R12 
32512      341033fe00000620      R4 MOV      R3 
32512      341033fe00000628      R5 ISET      R3 R255 
32512      341033fe00000630      R5 SHF      R4 R5 
32512      341033fe00000638      R4 SHL      R4 
32512      341033fe00000640      R4 MOV      R4 
32512      341033fe00000650      R5 MOV      R5 
32512      341033fe00000658 (CC) R4 IADD      R16 R4 
32512      341033fe00000660      R5 IADD (CC) R17 R5 
32512      341033fe00000668      R4 MOV      R4 
32512      341033fe00000670      R5 MOV      R5 
32512      341033fe00000678      R12 LD      R4 R5 
32512      341033fe00000680      R4 MOV      
32512      341033fe00000690      R4 MOV      R4 
32512      341033fe00000698      R5 MOV      R255 
32512      341033fe000006a0      R4 MOV      R4 
32512      341033fe000006a8      R5 MOV      R5 
32512      341033fe000006b0      R6 MOV      
32512      341033fe000006b8      R7 MOV      R255 
32512      341033fe000006c0      R4 LOP      R4 R6 
32512      341033fe000006d0      R5 LOP      R5 R7 
32512      341033fe000006d8      R6 MOV      R37 
32512      341033fe000006e0      R7 ISET      R37 R255 
32512      341033fe000006e8      R7 SHF      R6 R7 
32512      341033fe000006f0      R6 SHL      R6 
32512      341033fe000006f8      R6 MOV      R6 
32512      341033fe00000700      R7 MOV      R7 
32512      341033fe00000710 (CC) R4 IADD      R4 R6 
32512      341033fe00000718      R5 IADD (CC) R5 R7 
32512      341033fe00000720      R6 MOV      R36 
32512      341033fe00000728      R7 ISET      R36 R255 
32512      341033fe00000730      R7 SHF      R6 R7 
32512      341033fe00000738      R6 SHL      R6 
32512      341033fe00000740      R6 MOV      R6 
32512      341033fe00000750      R7 MOV      R7 
32512      341033fe00000758 (CC) R4 IADD      R4 R6 
32512      341033fe00000760      R5 IADD (CC) R5 R7 
32512      341033fe00000768      R4 MOV      R4 
32512      341033fe00000770      R5 MOV      R5 
32512      341033fe00000778      ST      R4 R5 R12 
33784      341033fe00000780      NOP      
32768      341033fe00000790      BAR      
32768      341033fe00000798 (p0)      ISETP      R9 R255 
32768      341033fe000007a0 (p0)      PSETP (p0)      
32768      341033fe000007a8      SSY      
32768      341033fe000007b0      BRA (p0)      
512        341033fe000007b8      BRA      
512        341033fe000007c0      R4 I2I      R9 
512        341033fe000007d0      BRA      
32256      341033fe000007d8      R4 MOV      R255 
32768      341033fe000007e0      NOP      
32768      341033fe000007e8      R34 MOV      R4 
32768      341033fe000007f0      R4 IADD      R23 
32768      341033fe000007f8 (p0)      ISETP      R11 R4 
32768      341033fe00000800 (p0)      PSETP (p0)      
32768      341033fe00000810      SSY      
32768      341033fe00000818      BRA (p0)      
512        341033fe00000820      BRA      
512        341033fe00000828      R4 IADD      R11 R23 
512        341033fe00000830      R5 IADD      R4 
512        341033fe00000838      R4 MOV      
512        341033fe00000840      R4 IADD      R4 R5 
512        341033fe00000850      BRA      
32256      341033fe00000858      R4 MOV      
32768      341033fe00000860      NOP      
32768      341033fe00000868      R35 MOV      R4 
32768      341033fe00000870 (p0)      ISETP      R10 R255 
32768      341033fe00000878 (p0)      PSETP (p0)      
32768      341033fe00000880      SSY      
32768      341033fe00000890      BRA (p0)      
512        341033fe00000898      BRA      
512        341033fe000008a0      R4 I2I      R10 
512        341033fe000008a8      BRA      
32256      341033fe000008b0      R4 MOV      R255 
32768      341033fe000008b8      NOP      
32768      341033fe000008c0      R40 MOV      R4 
32768      341033fe000008d0      R4 IADD      R22 
32768      341033fe000008d8 (p0)      ISETP      R8 R4 
32768      341033fe000008e0 (p0)      PSETP (p0)      
32768      341033fe000008e8      SSY      
32768      341033fe000008f0      BRA (p0)      
512        341033fe000008f8      BRA      
512        341033fe00000900      R4 IADD      R8 R22 
512        341033fe00000910      R5 IADD      R4 
512        341033fe00000918      R4 MOV      
512        341033fe00000920      R4 IADD      R4 R5 
512        341033fe00000928      BRA      
32256      341033fe00000930      R4 MOV      
32768      341033fe00000938      NOP      
32768      341033fe00000940      R41 MOV      R4 
32768      341033fe00000950      R4 IADD      R37 
32768      341033fe00000958      R5 IADD      R37 
32768      341033fe00000960      R6 IADD      R36 
32768      341033fe00000968      R7 IADD      R36 
32768      341033fe00000970 (p0)      ISETP      R4 R34 
32768      341033fe00000978 (p0)      PSETP (p0)      
32768      341033fe00000980      SSY      
32768      341033fe00000990      BRA (p0)      
4224       341033fe00000998      BRA      
4224       341033fe000009a0      R4 MOV      R34 
4224       341033fe000009a8      BRA      
32640      341033fe000009b0      R4 MOV      R4 
36864      341033fe000009b8      NOP      
32768      341033fe000009c0      R42 MOV      R4 
32768      341033fe000009d0 (p0)      ISETP      R5 R35 
32768      341033fe000009d8 (p0)      PSETP (p0)      
32768      341033fe000009e0      SSY      
32768      341033fe000009e8      BRA (p0)      
4224       341033fe000009f0      BRA      
4224       341033fe000009f8      R4 MOV      R35 
4224       341033fe00000a00      BRA      
32640      341033fe00000a10      R4 MOV      R5 
36864      341033fe00000a18      NOP      
32768      341033fe00000a20      R43 MOV      R4 
32768      341033fe00000a28 (p0)      ISETP      R6 R40 
32768      341033fe00000a30 (p0)      PSETP (p0)      
32768      341033fe00000a38      SSY      
32768      341033fe00000a40      BRA (p0)      
32768      341033fe00000a50      BRA      
32768      341033fe00000a58      R4 MOV      R40 
32768      341033fe00000a60      BRA      
32768      341033fe00000a68      R4 MOV      R6 
65536      341033fe00000a70      NOP      
32768      341033fe00000a78      R48 MOV      R4 
32768      341033fe00000a80 (p0)      ISETP      R7 R41 
32768      341033fe00000a90 (p0)      PSETP (p0)      
32768      341033fe00000a98      SSY      
32768      341033fe00000aa0      BRA (p0)      
32768      341033fe00000aa8      BRA      
32768      341033fe00000ab0      R4 MOV      R41 
32768      341033fe00000ab8      BRA      
32768      341033fe00000ac0      R4 MOV      R7 
65536      341033fe00000ad0      NOP      
32768      341033fe00000ad8      R49 MOV      R4 
32768      341033fe00000ae0      R4 MOV      R255 
32768      341033fe00000ae8      R50 MOV      R4 
32768      341033fe00000af0      PBK      
131072     341033fe00000af8 (p0)      ISETP      R50 R2 
131072     341033fe00000b00 (p0)      PSETP (p0)      
131072     341033fe00000b10      BRA (p0)      
131072     341033fe00000b18      BRA      
131072     341033fe00000b20      R4 I2I      R255 
131072     341033fe00000b28      R51 I2I      R4 
131072     341033fe00000b30      R4 IADD      R50 
131072     341033fe00000b38 (p1)      ISETP      R36 R4 
131072     341033fe00000b40 (p0)      PSETP      
131072     341033fe00000b50 (p1)      PSETP (p1)      
131072     341033fe00000b58      SSY      
131072     341033fe00000b60      BRA (p1)      
131072     341033fe00000b68      BRA      
131072     341033fe00000b70      R4 MOV      
131072     341033fe00000b78      R4 IADD      R4 R50 
131072     341033fe00000b80      R4 IADD      R4 
131072     341033fe00000b90 (p0)      ISETP      R36 R4 
262144     341033fe00000b98      NOP      
131072     341033fe00000ba0 (p1)      PSETP      
131072     341033fe00000ba8 (p0)      PSETP (p0)      
131072     341033fe00000bb0      SSY      
131072     341033fe00000bb8      BRA (p0)      
131072     341033fe00000bc0      BRA      
131072     341033fe00000bd0      R4 IADD      R50 
131072     341033fe00000bd8 (p0)      ISETP      R37 R4 
131072     341033fe00000be0 (p1)      PSETP      
131072     341033fe00000be8 (p0)      PSETP (p0)      
131072     341033fe00000bf0      BRA (p0)      
114688     341033fe00000bf8      BRA      
114688     341033fe00000c00      R4 MOV      
114688     341033fe00000c10      R4 IADD      R4 R50 
114688     341033fe00000c18      R4 IADD      R4 
114688     341033fe00000c20 (p1)      ISETP      R37 R4 
270336     341033fe00000c28      NOP      
131072     341033fe00000c30 (p0)      PSETP      
131072     341033fe00000c38 (p1)      PSETP (p1)      
131072     341033fe00000c40      SSY      
131072     341033fe00000c50      BRA (p1)      
98304      341033fe00000c58      BRA      
98304      341033fe00000c60 (p1)      ISETP      R36 R40 
98304      341033fe00000c68 (p0)      PSETP      
98304      341033fe00000c70 (p1)      PSETP (p1)      
98304      341033fe00000c78      BRA (p1)      
98304      341033fe00000c80      BRA      
98304      341033fe00000c90 (p0)      ISETP      R36 R41 
230656     341033fe00000c98      NOP      
131072     341033fe00000ca0 (p1)      PSETP      
131072     341033fe00000ca8 (p0)      PSETP (p0)      
131072     341033fe00000cb0      SSY      
131072     341033fe00000cb8      BRA (p0)      
98304      341033fe00000cc0      BRA      
98304      341033fe00000cd0 (p0)      ISETP      R37 R34 
98304      341033fe00000cd8 (p1)      PSETP      
98304      341033fe00000ce0 (p0)      PSETP (p0)      
98304      341033fe00000ce8      BRA (p0)      
98048      341033fe00000cf0      BRA      
98048      341033fe00000cf8 (p1)      ISETP      R37 R35 
229376     341033fe00000d00      NOP      
131072     341033fe00000d10 (p0)      PSETP (p1)      
131072     341033fe00000d18      SSY      
131072     341033fe00000d20      BRA (p0)      
97792      341033fe00000d28      BRA      
97792      341033fe00000d30      R4 I2I      
97792      341033fe00000d38      R51 I2I      R4 
97792      341033fe00000d40      R4 MOV      
97792      341033fe00000d50      R4 MOV      R4 
97792      341033fe00000d58      R5 MOV      R255 
97792      341033fe00000d60      R4 MOV      R4 
97792      341033fe00000d68      R5 MOV      R5 
97792      341033fe00000d70      R6 MOV      
97792      341033fe00000d78      R7 MOV      R255 
97792      341033fe00000d80      R8 LOP      R4 R6 
97792      341033fe00000d90      R9 LOP      R5 R7 
97792      341033fe00000d98      R4 MOV      R37 
97792      341033fe00000da0      R5 ISET      R37 R255 
97792      341033fe00000da8      R5 SHF      R4 R5 
97792      341033fe00000db0      R4 SHL      R4 
97792      341033fe00000db8      R4 MOV      R4 
97792      341033fe00000dc0      R5 MOV      R5 
97792      341033fe00000dd0 (CC) R4 IADD      R8 R4 
97792      341033fe00000dd8      R5 IADD (CC) R9 R5 
97792      341033fe00000de0      R6 MOV      R36 
97792      341033fe00000de8      R7 ISET      R36 R255 
97792      341033fe00000df0      R7 SHF      R6 R7 
97792      341033fe00000df8      R6 SHL      R6 
97792      341033fe00000e00      R6 MOV      R6 
97792      341033fe00000e10      R7 MOV      R7 
97792      341033fe00000e18 (CC) R4 IADD      R4 R6 
97792      341033fe00000e20      R5 IADD (CC) R5 R7 
97792      341033fe00000e28      R4 MOV      R4 
97792      341033fe00000e30      R5 MOV      R5 
97792      341033fe00000e38      R4 LD      R4 R5 
97792      341033fe00000e40      R4 R5 F2F      R4 
97792      341033fe00000e50      R6 R7 F2F      R38 
97792      341033fe00000e58      R10 MOV      
97792      341033fe00000e60      R10 MOV      R10 
97792      341033fe00000e68      R11 MOV      R255 
97792      341033fe00000e70      R10 MOV      R10 
97792      341033fe00000e78      R11 MOV      R11 
97792      341033fe00000e80      R12 MOV      
97792      341033fe00000e90      R13 MOV      R255 
97792      341033fe00000e98      R10 LOP      R10 R12 
97792      341033fe00000ea0      R11 LOP      R11 R13 
97792      341033fe00000ea8      R12 MOV      R37 
97792      341033fe00000eb0      R13 ISET      R37 R255 
97792      341033fe00000eb8      R13 SHF      R12 R13 
97792      341033fe00000ec0      R12 SHL      R12 
97792      341033fe00000ed0      R12 MOV      R12 
97792      341033fe00000ed8      R13 MOV      R13 
97792      341033fe00000ee0 (CC) R10 IADD      R10 R12 
97792      341033fe00000ee8      R11 IADD (CC) R11 R13 
97792      341033fe00000ef0      R12 MOV      R36 
97792      341033fe00000ef8      R13 ISET      R36 R255 
97792      341033fe00000f00      R13 SHF      R12 R13 
97792      341033fe00000f10      R12 SHL      R12 
97792      341033fe00000f18      R12 MOV      R12 
97792      341033fe00000f20      R13 MOV      R13 
97792      341033fe00000f28 (CC) R10 IADD      R10 R12 
97792      341033fe00000f30      R11 IADD (CC) R11 R13 
97792      341033fe00000f38      R10 MOV      R10 
97792      341033fe00000f40      R11 MOV      R11 
97792      341033fe00000f50      R10 LD      R10 R11 
97792      341033fe00000f58      R10 R11 F2F      R10 
97792      341033fe00000f60      R12 MOV      R43 
97792      341033fe00000f68      R13 ISET      R43 R255 
97792      341033fe00000f70      R13 SHF      R12 R13 
97792      341033fe00000f78      R12 SHL      R12 
97792      341033fe00000f80      R12 MOV      R12 
97792      341033fe00000f90      R13 MOV      R13 
97792      341033fe00000f98 (CC) R12 IADD      R8 R12 
97792      341033fe00000fa0      R13 IADD (CC) R9 R13 
97792      341033fe00000fa8      R14 MOV      R36 
97792      341033fe00000fb0      R15 ISET      R36 R255 
97792      341033fe00000fb8      R15 SHF      R14 R15 
97792      341033fe00000fc0      R14 SHL      R14 
97792      341033fe00000fd0      R14 MOV      R14 
97792      341033fe00000fd8      R15 MOV      R15 
97792      341033fe00000fe0 (CC) R12 IADD      R12 R14 
97792      341033fe00000fe8      R13 IADD (CC) R13 R15 
97792      341033fe00000ff0      R12 MOV      R12 
97792      341033fe00000ff8      R13 MOV      R13 
97792      341033fe00001000      R32 LD      R12 R13 
97792      341033fe00001010      R12 MOV      R42 
97792      341033fe00001018      R13 ISET      R42 R255 
97792      341033fe00001020      R13 SHF      R12 R13 
97792      341033fe00001028      R12 SHL      R12 
97792      341033fe00001030      R12 MOV      R12 
97792      341033fe00001038      R13 MOV      R13 
97792      341033fe00001040 (CC) R12 IADD      R8 R12 
97792      341033fe00001050      R13 IADD (CC) R9 R13 
97792      341033fe00001058      R14 MOV      R36 
97792      341033fe00001060      R15 ISET      R36 R255 
97792      341033fe00001068      R15 SHF      R14 R15 
97792      341033fe00001070      R14 SHL      R14 
97792      341033fe00001078      R14 MOV      R14 
97792      341033fe00001080      R15 MOV      R15 
97792      341033fe00001090 (CC) R12 IADD      R12 R14 
97792      341033fe00001098      R13 IADD (CC) R13 R15 
97792      341033fe000010a0      R12 MOV      R12 
97792      341033fe000010a8      R13 MOV      R13 
97792      341033fe000010b0      R12 LD      R12 R13 
97792      341033fe000010b8      R12 FADD      R32 R12 
97792      341033fe000010c0      R12 R13 F2F      R12 
97792      341033fe000010d0      R14 MOV      R37 
97792      341033fe000010d8      R15 ISET      R37 R255 
97792      341033fe000010e0      R15 SHF      R14 R15 
97792      341033fe000010e8      R14 SHL      R14 
97792      341033fe000010f0      R14 MOV      R14 
97792      341033fe000010f8      R15 MOV      R15 
97792      341033fe00001100 (CC) R14 IADD      R8 R14 
97792      341033fe00001110      R15 IADD (CC) R9 R15 
97792      341033fe00001118      R32 MOV      R36 
97792      341033fe00001120      R33 ISET      R36 R255 
97792      341033fe00001128      R33 SHF      R32 R33 
97792      341033fe00001130      R32 SHL      R32 
97792      341033fe00001138      R32 MOV      R32 
97792      341033fe00001140      R33 MOV      R33 
97792      341033fe00001150 (CC) R14 IADD      R14 R32 
97792      341033fe00001158      R15 IADD (CC) R15 R33 
97792      341033fe00001160      R14 MOV      R14 
97792      341033fe00001168      R15 MOV      R15 
97792      341033fe00001170      R14 LD      R14 R15 
97792      341033fe00001178      R14 R15 F2F      R14 
97792      341033fe00001180      R14 R15 DMUL      R14 R15 
97792      341033fe00001190      R12 R13 DADD      R12 R13 R14 R15 
97792      341033fe00001198      R14 R15 F2F      R27 
97792      341033fe000011a0      R12 R13 DMUL      R12 R13 R14 R15 
97792      341033fe000011a8      R10 R11 DADD      R10 R11 R12 R13 
97792      341033fe000011b0      R12 MOV      R37 
97792      341033fe000011b8      R13 ISET      R37 R255 
97792      341033fe000011c0      R13 SHF      R12 R13 
97792      341033fe000011d0      R12 SHL      R12 
97792      341033fe000011d8      R12 MOV      R12 
97792      341033fe000011e0      R13 MOV      R13 
97792      341033fe000011e8 (CC) R12 IADD      R8 R12 
97792      341033fe000011f0      R13 IADD (CC) R9 R13 
97792      341033fe000011f8      R14 MOV      R49 
97792      341033fe00001200      R15 ISET      R49 R255 
97792      341033fe00001210      R15 SHF      R14 R15 
97792      341033fe00001218      R14 SHL      R14 
97792      341033fe00001220      R14 MOV      R14 
97792      341033fe00001228      R15 MOV      R15 
97792      341033fe00001230 (CC) R12 IADD      R12 R14 
97792      341033fe00001238      R13 IADD (CC) R13 R15 
97792      341033fe00001240      R12 MOV      R12 
97792      341033fe00001250      R13 MOV      R13 
97792      341033fe00001258      R32 LD      R12 R13 
97792      341033fe00001260      R12 MOV      R37 
97792      341033fe00001268      R13 ISET      R37 R255 
97792      341033fe00001270      R13 SHF      R12 R13 
97792      341033fe00001278      R12 SHL      R12 
97792      341033fe00001280      R12 MOV      R12 
97792      341033fe00001290      R13 MOV      R13 
97792      341033fe00001298 (CC) R12 IADD      R8 R12 
97792      341033fe000012a0      R13 IADD (CC) R9 R13 
97792      341033fe000012a8      R14 MOV      R48 
97792      341033fe000012b0      R15 ISET      R48 R255 
97792      341033fe000012b8      R15 SHF      R14 R15 
97792      341033fe000012c0      R14 SHL      R14 
97792      341033fe000012d0      R14 MOV      R14 
97792      341033fe000012d8      R15 MOV      R15 
97792      341033fe000012e0 (CC) R12 IADD      R12 R14 
97792      341033fe000012e8      R13 IADD (CC) R13 R15 
97792      341033fe000012f0      R12 MOV      R12 
97792      341033fe000012f8      R13 MOV      R13 
97792      341033fe00001300      R12 LD      R12 R13 
97792      341033fe00001310      R12 FADD      R32 R12 
97792      341033fe00001318      R12 R13 F2F      R12 
97792      341033fe00001320      R14 MOV      R37 
97792      341033fe00001328      R15 ISET      R37 R255 
97792      341033fe00001330      R15 SHF      R14 R15 
97792      341033fe00001338      R14 SHL      R14 
97792      341033fe00001340      R14 MOV      R14 
97792      341033fe00001350      R15 MOV      R15 
97792      341033fe00001358 (CC) R14 IADD      R8 R14 
97792      341033fe00001360      R15 IADD (CC) R9 R15 
97792      341033fe00001368      R32 MOV      R36 
97792      341033fe00001370      R33 ISET      R36 R255 
97792      341033fe00001378      R33 SHF      R32 R33 
97792      341033fe00001380      R32 SHL      R32 
97792      341033fe00001390      R32 MOV      R32 
97792      341033fe00001398      R33 MOV      R33 
97792      341033fe000013a0 (CC) R14 IADD      R14 R32 
97792      341033fe000013a8      R15 IADD (CC) R15 R33 
97792      341033fe000013b0      R14 MOV      R14 
97792      341033fe000013b8      R15 MOV      R15 
97792      341033fe000013c0      R14 LD      R14 R15 
97792      341033fe000013d0      R14 R15 F2F      R14 
97792      341033fe000013d8      R14 R15 DMUL      R14 R15 
97792      341033fe000013e0      R12 R13 DADD      R12 R13 R14 R15 
97792      341033fe000013e8      R14 R15 F2F      R26 
97792      341033fe000013f0      R12 R13 DMUL      R12 R13 R14 R15 
97792      341033fe000013f8      R10 R11 DADD      R10 R11 R12 R13 
97792      341033fe00001400      R12 MOV      R37 
97792      341033fe00001410      R13 ISET      R37 R255 
97792      341033fe00001418      R13 SHF      R12 R13 
97792      341033fe00001420      R12 SHL      R12 
97792      341033fe00001428      R12 MOV      R12 
97792      341033fe00001430      R13 MOV      R13 
97792      341033fe00001438 (CC) R8 IADD      R8 R12 
97792      341033fe00001440      R9 IADD (CC) R9 R13 
97792      341033fe00001450      R12 MOV      R36 
97792      341033fe00001458      R13 ISET      R36 R255 
97792      341033fe00001460      R13 SHF      R12 R13 
97792      341033fe00001468      R12 SHL      R12 
97792      341033fe00001470      R12 MOV      R12 
97792      341033fe00001478      R13 MOV      R13 
97792      341033fe00001480 (CC) R8 IADD      R8 R12 
97792      341033fe00001490      R9 IADD (CC) R9 R13 
97792      341033fe00001498      R8 MOV      R8 
97792      341033fe000014a0      R9 MOV      R9 
97792      341033fe000014a8      R8 LD      R8 R9 
97792      341033fe000014b0      R8 FADD      R29 R8 
97792      341033fe000014b8      R8 FMUL      R8 R0 
97792      341033fe000014c0      R8 R9 F2F      R8 
97792      341033fe000014d0      R8 R9 DADD      R10 R11 R8 R9 
97792      341033fe000014d8      R6 R7 DMUL      R6 R7 R8 R9 
97792      341033fe000014e0      R4 R5 DADD      R4 R5 R6 R7 
97792      341033fe000014e8      R8 F2F      R4 R5 
97792      341033fe000014f0      R4 MOV      
97792      341033fe000014f8      R4 MOV      R4 
97792      341033fe00001500      R5 MOV      R255 
97792      341033fe00001510      R4 MOV      R4 
97792      341033fe00001518      R5 MOV      R5 
97792      341033fe00001520      R6 MOV      
97792      341033fe00001528      R7 MOV      R255 
97792      341033fe00001530      R4 LOP      R4 R6 
97792      341033fe00001538      R5 LOP      R5 R7 
97792      341033fe00001540      R6 MOV      R37 
97792      341033fe00001550      R7 ISET      R37 R255 
97792      341033fe00001558      R7 SHF      R6 R7 
97792      341033fe00001560      R6 SHL      R6 
97792      341033fe00001568      R6 MOV      R6 
97792      341033fe00001570      R7 MOV      R7 
97792      341033fe00001578 (CC) R4 IADD      R4 R6 
97792      341033fe00001580      R5 IADD (CC) R5 R7 
97792      341033fe00001590      R6 MOV      R36 
97792      341033fe00001598      R7 ISET      R36 R255 
97792      341033fe000015a0      R7 SHF      R6 R7 
97792      341033fe000015a8      R6 SHL      R6 
97792      341033fe000015b0      R6 MOV      R6 
97792      341033fe000015b8      R7 MOV      R7 
97792      341033fe000015c0 (CC) R4 IADD      R4 R6 
97792      341033fe000015d0      R5 IADD (CC) R5 R7 
97792      341033fe000015d8      R4 MOV      R4 
97792      341033fe000015e0      R5 MOV      R5 
97792      341033fe000015e8      ST      R4 R5 R8 
228864     341033fe000015f0      NOP      
131072     341033fe000015f8      BAR      
131072     341033fe00001600      R4 IADD      R2 
131072     341033fe00001610 (p0)      ISETP      R50 R4 
131072     341033fe00001618 (p0)      PSETP (p0)      
131072     341033fe00001620      BRA (p0)      
32768      341033fe00001628      BRA      
32768      341033fe00001630      BRK      
98304      341033fe00001640      R4 LOP      R51 
98304      341033fe00001650      R5 I2I      R255 
98304      341033fe00001658      R4 I2I      R4 
98304      341033fe00001660 (p0)      ISETP      R4 R5 
98304      341033fe00001668 (p0)      PSETP (p0)      
98304      341033fe00001670      SSY      
98304      341033fe00001678      BRA (p0)      
81408      341033fe00001680      BRA      
81408      341033fe00001690      R4 MOV      
81408      341033fe00001698      R4 MOV      R4 
81408      341033fe000016a0      R5 MOV      R255 
81408      341033fe000016a8      R4 MOV      R4 
81408      341033fe000016b0      R5 MOV      R5 
81408      341033fe000016b8      R6 MOV      
81408      341033fe000016c0      R7 MOV      R255 
81408      341033fe000016d0      R4 LOP      R4 R6 
81408      341033fe000016d8      R5 LOP      R5 R7 
81408      341033fe000016e0      R6 MOV      R37 
81408      341033fe000016e8      R7 ISET      R37 R255 
81408      341033fe000016f0      R7 SHF      R6 R7 
81408      341033fe000016f8      R6 SHL      R6 
81408      341033fe00001700      R6 MOV      R6 
81408      341033fe00001710      R7 MOV      R7 
81408      341033fe00001718 (CC) R4 IADD      R4 R6 
81408      341033fe00001720      R5 IADD (CC) R5 R7 
81408      341033fe00001728      R6 MOV      R36 
81408      341033fe00001730      R7 ISET      R36 R255 
81408      341033fe00001738      R7 SHF      R6 R7 
81408      341033fe00001740      R6 SHL      R6 
81408      341033fe00001750      R6 MOV      R6 
81408      341033fe00001758      R7 MOV      R7 
81408      341033fe00001760 (CC) R4 IADD      R4 R6 
81408      341033fe00001768      R5 IADD (CC) R5 R7 
81408      341033fe00001770      R4 MOV      R4 
81408      341033fe00001778      R5 MOV      R5 
81408      341033fe00001780      R8 LD      R4 R5 
81408      341033fe00001790      R4 MOV      
81408      341033fe00001798      R4 MOV      R4 
81408      341033fe000017a0      R5 MOV      R255 
81408      341033fe000017a8      R4 MOV      R4 
81408      341033fe000017b0      R5 MOV      R5 
81408      341033fe000017b8      R6 MOV      
81408      341033fe000017c0      R7 MOV      R255 
81408      341033fe000017d0      R4 LOP      R4 R6 
81408      341033fe000017d8      R5 LOP      R5 R7 
81408      341033fe000017e0      R6 MOV      R37 
81408      341033fe000017e8      R7 ISET      R37 R255 
81408      341033fe000017f0      R7 SHF      R6 R7 
81408      341033fe000017f8      R6 SHL      R6 
81408      341033fe00001800      R6 MOV      R6 
81408      341033fe00001810      R7 MOV      R7 
81408      341033fe00001818 (CC) R4 IADD      R4 R6 
81408      341033fe00001820      R5 IADD (CC) R5 R7 
81408      341033fe00001828      R6 MOV      R36 
81408      341033fe00001830      R7 ISET      R36 R255 
81408      341033fe00001838      R7 SHF      R6 R7 
81408      341033fe00001840      R6 SHL      R6 
81408      341033fe00001850      R6 MOV      R6 
81408      341033fe00001858      R7 MOV      R7 
81408      341033fe00001860 (CC) R4 IADD      R4 R6 
81408      341033fe00001868      R5 IADD (CC) R5 R7 
81408      341033fe00001870      R4 MOV      R4 
81408      341033fe00001878      R5 MOV      R5 
81408      341033fe00001880      ST      R4 R5 R8 
179712     341033fe00001890      NOP      
98304      341033fe00001898      BAR      
98304      341033fe000018a0      R50 IADD      R50 
98304      341033fe000018a8      BRA      
32768      341033fe000018c0      R0 LOP      R51 
32768      341033fe000018d0      R4 I2I      R255 
32768      341033fe000018d8      R0 I2I      R0 
32768      341033fe000018e0 (p0)      ISETP      R0 R4 
32768      341033fe000018e8 (p0)      PSETP (p0)      
32768      341033fe000018f0      SSY      
32768      341033fe000018f8      BRA (p0)      
16384      341033fe00001900      BRA      
16384      341033fe00001910      R0 MOV      
16384      341033fe00001918      R4 MOV      R0 
16384      341033fe00001920      R5 MOV      R255 
16384      341033fe00001928      R4 MOV      R4 
16384      341033fe00001930      R5 MOV      R5 
16384      341033fe00001938      R6 MOV      
16384      341033fe00001940      R7 MOV      R255 
16384      341033fe00001950      R4 LOP      R4 R6 
16384      341033fe00001958      R5 LOP      R5 R7 
16384      341033fe00001960      R6 MOV      R37 
16384      341033fe00001968      R7 ISET      R37 R255 
16384      341033fe00001970      R7 SHF      R6 R7 
16384      341033fe00001978      R0 SHL      R6 
16384      341033fe00001980      R6 MOV      R0 
16384      341033fe00001990      R7 MOV      R7 
16384      341033fe00001998 (CC) R4 IADD      R4 R6 
16384      341033fe000019a0      R5 IADD (CC) R5 R7 
16384      341033fe000019a8      R6 MOV      R36 
16384      341033fe000019b0      R7 ISET      R36 R255 
16384      341033fe000019b8      R7 SHF      R6 R7 
16384      341033fe000019c0      R0 SHL      R6 
16384      341033fe000019d0      R6 MOV      R0 
16384      341033fe000019d8      R7 MOV      R7 
16384      341033fe000019e0 (CC) R4 IADD      R4 R6 
16384      341033fe000019e8      R5 IADD (CC) R5 R7 
16384      341033fe000019f0      R4 MOV      R4 
16384      341033fe000019f8      R5 MOV      R5 
16384      341033fe00001a00      R0 LD      R4 R5 
16384      341033fe00001a10      R4 MOV      R3 
16384      341033fe00001a18      R5 ISET      R3 R255 
16384      341033fe00001a20      R5 SHF      R4 R5 
16384      341033fe00001a28      R3 SHL      R4 
16384      341033fe00001a30      R4 MOV      R3 
16384      341033fe00001a38      R5 MOV      R5 
16384      341033fe00001a40 (CC) R4 IADD      R20 R4 
16384      341033fe00001a50      R5 IADD (CC) R21 R5 
16384      341033fe00001a58      R4 MOV      R4 
16384      341033fe00001a60      R5 MOV      R5 
16384      341033fe00001a68      ST      R4 R5 R0 
49152      341033fe00001a70      NOP      
32768      341033fe00001a78      BRA      
32768      341033fe00001a98      EXIT      R1 
32768      518c7e0600000000      R3 MOV      R5 
32768      518c7e0600000008      R0 MOV      R4 
32768      518c7e0600000010      R0 MOV      R0 
32768      518c7e0600000018      R3 MOV      R3 
32768      518c7e0600000020      R3 MOV      R3 
32768      518c7e0600000028      R0 MOV      R0 
32768      518c7e0600000030 (p0)      FCHK      R0 R3 
32768      518c7e0600000038      R0 MOV      R0 
32768      518c7e0600000040      R3 MOV      R3 
32768      518c7e0600000048      SSY      
32768      518c7e0600000050      BRA (p0)      
32768      518c7e0600000058      R6 MOV      R255 
32768      518c7e0600000060      R5 MOV      
32768      518c7e0600000068      R3 MOV      R3 
32768      518c7e0600000070      R4 MUFU      R3 
32768      518c7e0600000078      R3 F2F      R3 
32768      518c7e0600000080      R5 FFMA      R3 R4 R5 
32768      518c7e0600000088      R4 FFMA      R4 R5 R4 
32768      518c7e0600000090      R0 MOV      R0 
32768      518c7e0600000098      R5 FFMA      R0 R4 R6 
32768      518c7e06000000a0      R6 FFMA      R3 R5 R0 
32768      518c7e06000000a8      R5 FFMA      R6 R4 R5 
32768      518c7e06000000b0      R0 FFMA      R3 R5 R0 
32768      518c7e06000000b8      R0 FFMA      R0 R4 R5 
32768      518c7e06000000c0      R0 MOV      R0 
32768      518c7e06000000c8      R0 MOV      R0 
32768      518c7e06000000d0      BRA      
32768      518c7e0600000120      NOP      
32768      518c7e0600000128      R4 MOV      R0 
32768      518c7e0600000130      RET      R1 R4 
98304      55765fa200000000      R0 MOV      R4 
98304      55765fa200000008      R0 MOV      R0 
98304      55765fa200000010      R0 MOV      R0 
98304      55765fa200000018      R4 MOV      
98304      55765fa200000020      R0 MOV      R0 
98304      55765fa200000028      R0 MOV      R0 
98304      55765fa200000030      R0 MOV      R0 
98304      55765fa200000038      R3 IADD32I      R0 
98304      55765fa200000040      R3 LOP32I      R3 
98304      55765fa200000048 (p0)      ISETP      R3 R4 
98304      55765fa200000050      R0 MOV      R0 
98304      55765fa200000058      SSY      
98304      55765fa200000060      BRA (p0)      
98304      55765fa2000000a0      R4 MOV      
98304      55765fa2000000a8      R3 MUFU      R0 
98304      55765fa2000000b0      R0 FFMA      R0 R3 R4 
98304      55765fa2000000b8      R0 F2F      R0 
98304      55765fa2000000c0      R0 FFMA      R3 R0 R3 
98304      55765fa2000000c8      NOP      
98304      55765fa2000000d0      R0 MOV      R0 
98304      55765fa2000000d8      R0 MOV      R0 
98304      55765fa2000000e0      R0 MOV      R0 
98304      55765fa2000000e8      R4 MOV      R0 
98304      55765fa2000000f0      RET      R1 R4 
